; Function Attrs: mustprogress uwtable
define noundef ptr @_ZN11OpenImageIO6v3_1_025webp_input_imageio_createEv() local_unnamed_addr #5 personality ptr @__gxx_personality_v0 {
  %1 = tail call noundef ptr @_ZN11OpenImageIO6v3_1_010ImageInputnwEm(i64 noundef 352)
  invoke void @_ZN11OpenImageIO6v3_1_010ImageInputC2Ev(ptr noundef nonnull align 8 dereferenceable(352) %1)
          to label %2 unwind label %11

2:                                                ; preds = %0
  store ptr getelementptr inbounds nuw inrange(-16, 272) (i8, ptr @_ZTVN11OpenImageIO6v3_1_08webp_pvt9WebpInputE, i64 16), ptr %1, align 8, !tbaa !13
  %3 = getelementptr inbounds nuw i8, ptr %1, i64 184
  %4 = getelementptr inbounds nuw i8, ptr %1, i64 200
  store ptr %4, ptr %3, align 8, !tbaa !122
  %5 = getelementptr inbounds nuw i8, ptr %1, i64 192
  store i64 0, ptr %5, align 8, !tbaa !27
  store i8 0, ptr %4, align 1, !tbaa !28
  %6 = getelementptr inbounds nuw i8, ptr %1, i64 216
  %7 = getelementptr inbounds nuw i8, ptr %1, i64 252
  tail call void @llvm.memset.p0.i64(ptr noundef nonnull align 8 dereferenceable(36) %6, i8 0, i64 36, i1 false)
  store i32 1, ptr %7, align 4, !tbaa !85
  %8 = getelementptr inbounds nuw i8, ptr %1, i64 256
  store ptr null, ptr %8, align 8, !tbaa !78
  %9 = getelementptr inbounds nuw i8, ptr %1, i64 344
  store i32 -1, ptr %9, align 8, !tbaa !80
  %10 = getelementptr inbounds nuw i8, ptr %1, i64 348
  store i32 -1, ptr %10, align 4, !tbaa !97
  ret ptr %1

11:                                               ; preds = %0
  %12 = landingpad { ptr, i32 }
          cleanup
  tail call void @_ZN11OpenImageIO6v3_1_010ImageInputdlEPv(ptr noundef nonnull %1) #24
  resume { ptr, i32 } %12
}